; Function Attrs: noreturn nounwind uwtable
define void @zend_error_at_noreturn(i32 noundef %0, ptr noundef %1, i32 noundef %2, ptr noundef %3, ...) local_unnamed_addr #12 {
  %5 = alloca ptr, align 8
  %6 = alloca [1 x %struct.__va_list_tag], align 16
  %7 = alloca i32, align 4
  store ptr %1, ptr %5, align 8
  %.not = icmp eq ptr %1, null
  br i1 %.not, label %8, label %9

8:                                                ; preds = %4
  call fastcc void @get_filename_lineno(i32 noundef %0, ptr noundef nonnull %5, ptr noundef nonnull %7)
  %.pre = load ptr, ptr %5, align 8
  br label %9

9:                                                ; preds = %8, %4
  %10 = phi ptr [ %.pre, %8 ], [ %1, %4 ]
  call void @llvm.va_start(ptr nonnull %6)
  call fastcc void @zend_error_va_list(i32 noundef %0, ptr noundef %10, i32 noundef %2, ptr noundef %3, ptr noundef nonnull %6)
  call void @llvm.va_end(ptr nonnull %6)
  call void @abort() #34
  unreachable
}